   1              		.cpu cortex-m0
   2              		.fpu softvfp
   3              		.eabi_attribute 20, 1
   4              		.eabi_attribute 21, 1
   5              		.eabi_attribute 23, 3
   6              		.eabi_attribute 24, 1
   7              		.eabi_attribute 25, 1
   8              		.eabi_attribute 26, 1
   9              		.eabi_attribute 30, 6
  10              		.eabi_attribute 34, 0
  11              		.eabi_attribute 18, 4
  12              		.code	16
  13              		.file	"AlgoOne.c"
  14              		.text
  15              	.Ltext0:
  16              		.cfi_sections	.debug_frame
  17              		.global	__aeabi_idiv
  18              		.section	.rodata
  19              		.align	2
  20              	.LC2:
  21 0000 256400   		.ascii	"%d\000"
  22 0003 00       		.align	2
  23              	.LC4:
  24 0004 0D00     		.ascii	"\015\000"
  25              		.global	__aeabi_i2f
  26              		.global	__aeabi_fdiv
  27              		.global	__aeabi_fsub
  28 0006 0000     		.section	.text.algo_one,"ax",%progbits
  29              		.align	2
  30              		.global	algo_one
  31              		.code	16
  32              		.thumb_func
  34              	algo_one:
  35              	.LFB0:
  36              		.file 1 "../Sources/AlgoOne.c"
   1:../Sources/AlgoOne.c **** /*
   2:../Sources/AlgoOne.c ****  * AlgoOne.c
   3:../Sources/AlgoOne.c ****  *
   4:../Sources/AlgoOne.c ****  *  Created on: Sep 17, 2015
   5:../Sources/AlgoOne.c ****  *      Author: Jared
   6:../Sources/AlgoOne.c ****  */
   7:../Sources/AlgoOne.c **** 
   8:../Sources/AlgoOne.c **** #include "derivative.h" /* include peripheral declarations */
   9:../Sources/AlgoOne.c **** #include "TFC\TFC.h"
  10:../Sources/AlgoOne.c **** #include "Common.h"
  11:../Sources/AlgoOne.c **** 
  12:../Sources/AlgoOne.c **** #define START_PIXEL 10
  13:../Sources/AlgoOne.c **** #define STOP_PIXEL 118
  14:../Sources/AlgoOne.c **** 
  15:../Sources/AlgoOne.c **** 
  16:../Sources/AlgoOne.c **** 
  17:../Sources/AlgoOne.c **** void algo_one(){
  37              		.loc 1 17 0
  38              		.cfi_startproc
  39 0000 90B5     		push	{r4, r7, lr}
  40              	.LCFI0:
  41              		.cfi_def_cfa_offset 12
  42              		.cfi_offset 4, -12
  43              		.cfi_offset 7, -8
  44              		.cfi_offset 14, -4
  45 0002 F7B0     		sub	sp, sp, #476
  46              	.LCFI1:
  47              		.cfi_def_cfa_offset 488
  48 0004 00AF     		add	r7, sp, #0
  49              	.LCFI2:
  50              		.cfi_def_cfa_register 7
  18:../Sources/AlgoOne.c **** 
  19:../Sources/AlgoOne.c ****    int i;
  20:../Sources/AlgoOne.c **** 
  21:../Sources/AlgoOne.c ****    //Variables for calculating average light levels
  22:../Sources/AlgoOne.c ****    long int sum = 0;
  51              		.loc 1 22 0
  52 0006 0023     		mov	r3, #0
  53 0008 E821     		mov	r1, #232
  54 000a 4900     		lsl	r1, r1, #1
  55 000c C919     		add	r1, r1, r7
  56 000e 0B60     		str	r3, [r1]
  23:../Sources/AlgoOne.c ****    int avg;
  24:../Sources/AlgoOne.c **** 
  25:../Sources/AlgoOne.c ****    //Array recording if pixel light level is below average
  26:../Sources/AlgoOne.c ****    int belowAvg[ STOP_PIXEL - START_PIXEL + 1 ];
  27:../Sources/AlgoOne.c **** 
  28:../Sources/AlgoOne.c ****    //Variables for calculating center of the pixels below average and difference from center of all
  29:../Sources/AlgoOne.c ****    int sumBelowAvg = 0;
  57              		.loc 1 29 0
  58 0010 0023     		mov	r3, #0
  59 0012 E622     		mov	r2, #230
  60 0014 5200     		lsl	r2, r2, #1
  61 0016 D219     		add	r2, r2, r7
  62 0018 1360     		str	r3, [r2]
  30:../Sources/AlgoOne.c ****    int totBelowAvg = 0;
  63              		.loc 1 30 0
  64 001a 0023     		mov	r3, #0
  65 001c E421     		mov	r1, #228
  66 001e 4900     		lsl	r1, r1, #1
  67 0020 C919     		add	r1, r1, r7
  68 0022 0B60     		str	r3, [r1]
  31:../Sources/AlgoOne.c ****    int centerBelowAvg;
  32:../Sources/AlgoOne.c ****    int center = ( STOP_PIXEL - START_PIXEL + 1) / 2;
  69              		.loc 1 32 0
  70 0024 3623     		mov	r3, #54
  71 0026 E222     		mov	r2, #226
  72 0028 5200     		lsl	r2, r2, #1
  73 002a D219     		add	r2, r2, r7
  74 002c 1360     		str	r3, [r2]
  33:../Sources/AlgoOne.c ****    int diffCenter;
  34:../Sources/AlgoOne.c ****    float diff;
  35:../Sources/AlgoOne.c **** 
  36:../Sources/AlgoOne.c **** 
  37:../Sources/AlgoOne.c ****    if( LineScanImageReady == 1 ){
  75              		.loc 1 37 0
  76 002e 984B     		ldr	r3, .L14
  77 0030 1B78     		ldrb	r3, [r3]
  78 0032 DBB2     		uxtb	r3, r3
  79 0034 012B     		cmp	r3, #1
  80 0036 00D0     		beq	.LCB40
  81 0038 A5E0     		b	.L2	@long jump
  82              	.LCB40:
  38:../Sources/AlgoOne.c ****       LineScanImageReady = 0;
  83              		.loc 1 38 0
  84 003a 954B     		ldr	r3, .L14
  85 003c 0022     		mov	r2, #0
  86 003e 1A70     		strb	r2, [r3]
  39:../Sources/AlgoOne.c **** 
  40:../Sources/AlgoOne.c ****       //Adds each pixels light value to the total
  41:../Sources/AlgoOne.c ****       for( i = START_PIXEL; i < STOP_PIXEL; i++ ){
  87              		.loc 1 41 0
  88 0040 0A23     		mov	r3, #10
  89 0042 EA21     		mov	r1, #234
  90 0044 4900     		lsl	r1, r1, #1
  91 0046 C919     		add	r1, r1, r7
  92 0048 0B60     		str	r3, [r1]
  93 004a 1BE0     		b	.L3
  94              	.L4:
  42:../Sources/AlgoOne.c ****          sum += LineScanImage0[i];
  95              		.loc 1 42 0
  96 004c 914B     		ldr	r3, .L14+4
  97 004e 1A68     		ldr	r2, [r3]
  98 0050 EA21     		mov	r1, #234
  99 0052 4900     		lsl	r1, r1, #1
 100 0054 C919     		add	r1, r1, r7
 101 0056 0B68     		ldr	r3, [r1]
 102 0058 5B00     		lsl	r3, r3, #1
 103 005a D318     		add	r3, r2, r3
 104 005c 1B88     		ldrh	r3, [r3]
 105 005e 9BB2     		uxth	r3, r3
 106 0060 E821     		mov	r1, #232
 107 0062 4900     		lsl	r1, r1, #1
 108 0064 C919     		add	r1, r1, r7
 109 0066 0A68     		ldr	r2, [r1]
 110 0068 D318     		add	r3, r2, r3
 111 006a E822     		mov	r2, #232
 112 006c 5200     		lsl	r2, r2, #1
 113 006e D219     		add	r2, r2, r7
 114 0070 1360     		str	r3, [r2]
  41:../Sources/AlgoOne.c ****       for( i = START_PIXEL; i < STOP_PIXEL; i++ ){
 115              		.loc 1 41 0
 116 0072 EA21     		mov	r1, #234
 117 0074 4900     		lsl	r1, r1, #1
 118 0076 C919     		add	r1, r1, r7
 119 0078 0B68     		ldr	r3, [r1]
 120 007a 0133     		add	r3, r3, #1
 121 007c EA22     		mov	r2, #234
 122 007e 5200     		lsl	r2, r2, #1
 123 0080 D219     		add	r2, r2, r7
 124 0082 1360     		str	r3, [r2]
 125              	.L3:
  41:../Sources/AlgoOne.c ****       for( i = START_PIXEL; i < STOP_PIXEL; i++ ){
 126              		.loc 1 41 0 is_stmt 0
 127 0084 EA21     		mov	r1, #234
 128 0086 4900     		lsl	r1, r1, #1
 129 0088 C919     		add	r1, r1, r7
 130 008a 0B68     		ldr	r3, [r1]
 131 008c 752B     		cmp	r3, #117
 132 008e DDDD     		ble	.L4
  43:../Sources/AlgoOne.c ****       }
  44:../Sources/AlgoOne.c **** 
  45:../Sources/AlgoOne.c ****       //Calculates average light value
  46:../Sources/AlgoOne.c ****       avg = sum / ( STOP_PIXEL - START_PIXEL );
 133              		.loc 1 46 0 is_stmt 1
 134 0090 E822     		mov	r2, #232
 135 0092 5200     		lsl	r2, r2, #1
 136 0094 D219     		add	r2, r2, r7
 137 0096 1368     		ldr	r3, [r2]
 138 0098 181C     		mov	r0, r3
 139 009a 6C21     		mov	r1, #108
 140 009c FFF7FEFF 		bl	__aeabi_idiv
 141 00a0 031C     		mov	r3, r0
 142 00a2 E021     		mov	r1, #224
 143 00a4 4900     		lsl	r1, r1, #1
 144 00a6 C919     		add	r1, r1, r7
 145 00a8 0B60     		str	r3, [r1]
  47:../Sources/AlgoOne.c **** 
  48:../Sources/AlgoOne.c ****       //Calculates which pixels are below average and fills the array accordingly
  49:../Sources/AlgoOne.c ****       for( i = START_PIXEL; i < STOP_PIXEL; i++ ){
 146              		.loc 1 49 0
 147 00aa 0A23     		mov	r3, #10
 148 00ac EA22     		mov	r2, #234
 149 00ae 5200     		lsl	r2, r2, #1
 150 00b0 D219     		add	r2, r2, r7
 151 00b2 1360     		str	r3, [r2]
 152 00b4 36E0     		b	.L5
 153              	.L8:
  50:../Sources/AlgoOne.c **** 
  51:../Sources/AlgoOne.c ****          //If pixel is below average sets corresponding array element to 1
  52:../Sources/AlgoOne.c ****          if( LineScanImage0[i] < avg ){
 154              		.loc 1 52 0
 155 00b6 774B     		ldr	r3, .L14+4
 156 00b8 1A68     		ldr	r2, [r3]
 157 00ba EA21     		mov	r1, #234
 158 00bc 4900     		lsl	r1, r1, #1
 159 00be C919     		add	r1, r1, r7
 160 00c0 0B68     		ldr	r3, [r1]
 161 00c2 5B00     		lsl	r3, r3, #1
 162 00c4 D318     		add	r3, r2, r3
 163 00c6 1B88     		ldrh	r3, [r3]
 164 00c8 9BB2     		uxth	r3, r3
 165 00ca 1A1C     		mov	r2, r3
 166 00cc E021     		mov	r1, #224
 167 00ce 4900     		lsl	r1, r1, #1
 168 00d0 C919     		add	r1, r1, r7
 169 00d2 0B68     		ldr	r3, [r1]
 170 00d4 9A42     		cmp	r2, r3
 171 00d6 0EDA     		bge	.L6
  53:../Sources/AlgoOne.c ****             belowAvg[ i - START_PIXEL ] = 1;
 172              		.loc 1 53 0
 173 00d8 EA22     		mov	r2, #234
 174 00da 5200     		lsl	r2, r2, #1
 175 00dc D219     		add	r2, r2, r7
 176 00de 1368     		ldr	r3, [r2]
 177 00e0 1A1C     		mov	r2, r3
 178 00e2 0A3A     		sub	r2, r2, #10
 179 00e4 6C4B     		ldr	r3, .L14+8
 180 00e6 EC21     		mov	r1, #236
 181 00e8 4900     		lsl	r1, r1, #1
 182 00ea C919     		add	r1, r1, r7
 183 00ec CB18     		add	r3, r1, r3
 184 00ee 9200     		lsl	r2, r2, #2
 185 00f0 0121     		mov	r1, #1
 186 00f2 D150     		str	r1, [r2, r3]
 187 00f4 0DE0     		b	.L7
 188              	.L6:
  54:../Sources/AlgoOne.c ****          }
  55:../Sources/AlgoOne.c **** 
  56:../Sources/AlgoOne.c ****          //If pixel is above average sets corresponding array element to 0
  57:../Sources/AlgoOne.c ****          else {
  58:../Sources/AlgoOne.c ****             belowAvg[ i - START_PIXEL ] = 0;
 189              		.loc 1 58 0
 190 00f6 EA22     		mov	r2, #234
 191 00f8 5200     		lsl	r2, r2, #1
 192 00fa D219     		add	r2, r2, r7
 193 00fc 1368     		ldr	r3, [r2]
 194 00fe 1A1C     		mov	r2, r3
 195 0100 0A3A     		sub	r2, r2, #10
 196 0102 654B     		ldr	r3, .L14+8
 197 0104 EC21     		mov	r1, #236
 198 0106 4900     		lsl	r1, r1, #1
 199 0108 C919     		add	r1, r1, r7
 200 010a CB18     		add	r3, r1, r3
 201 010c 9200     		lsl	r2, r2, #2
 202 010e 0021     		mov	r1, #0
 203 0110 D150     		str	r1, [r2, r3]
 204              	.L7:
  49:../Sources/AlgoOne.c ****       for( i = START_PIXEL; i < STOP_PIXEL; i++ ){
 205              		.loc 1 49 0
 206 0112 EA22     		mov	r2, #234
 207 0114 5200     		lsl	r2, r2, #1
 208 0116 D219     		add	r2, r2, r7
 209 0118 1368     		ldr	r3, [r2]
 210 011a 0133     		add	r3, r3, #1
 211 011c EA21     		mov	r1, #234
 212 011e 4900     		lsl	r1, r1, #1
 213 0120 C919     		add	r1, r1, r7
 214 0122 0B60     		str	r3, [r1]
 215              	.L5:
  49:../Sources/AlgoOne.c ****       for( i = START_PIXEL; i < STOP_PIXEL; i++ ){
 216              		.loc 1 49 0 is_stmt 0
 217 0124 EA22     		mov	r2, #234
 218 0126 5200     		lsl	r2, r2, #1
 219 0128 D219     		add	r2, r2, r7
 220 012a 1368     		ldr	r3, [r2]
 221 012c 752B     		cmp	r3, #117
 222 012e C2DD     		ble	.L8
  59:../Sources/AlgoOne.c ****          }
  60:../Sources/AlgoOne.c ****       }
  61:../Sources/AlgoOne.c **** 
  62:../Sources/AlgoOne.c ****       //Outputs the array over serial
  63:../Sources/AlgoOne.c ****       for( i = START_PIXEL; i < STOP_PIXEL; i++ ){
 223              		.loc 1 63 0 is_stmt 1
 224 0130 0A23     		mov	r3, #10
 225 0132 EA21     		mov	r1, #234
 226 0134 4900     		lsl	r1, r1, #1
 227 0136 C919     		add	r1, r1, r7
 228 0138 0B60     		str	r3, [r1]
 229 013a 1AE0     		b	.L9
 230              	.L10:
  64:../Sources/AlgoOne.c ****          printf( "%d", belowAvg[ i - START_PIXEL ] );
 231              		.loc 1 64 0
 232 013c EA22     		mov	r2, #234
 233 013e 5200     		lsl	r2, r2, #1
 234 0140 D219     		add	r2, r2, r7
 235 0142 1368     		ldr	r3, [r2]
 236 0144 1A1C     		mov	r2, r3
 237 0146 0A3A     		sub	r2, r2, #10
 238 0148 534B     		ldr	r3, .L14+8
 239 014a EC21     		mov	r1, #236
 240 014c 4900     		lsl	r1, r1, #1
 241 014e C919     		add	r1, r1, r7
 242 0150 CB18     		add	r3, r1, r3
 243 0152 9200     		lsl	r2, r2, #2
 244 0154 D358     		ldr	r3, [r2, r3]
 245 0156 514A     		ldr	r2, .L14+12
 246 0158 101C     		mov	r0, r2
 247 015a 191C     		mov	r1, r3
 248 015c FFF7FEFF 		bl	printf
  63:../Sources/AlgoOne.c ****       for( i = START_PIXEL; i < STOP_PIXEL; i++ ){
 249              		.loc 1 63 0
 250 0160 EA22     		mov	r2, #234
 251 0162 5200     		lsl	r2, r2, #1
 252 0164 D219     		add	r2, r2, r7
 253 0166 1368     		ldr	r3, [r2]
 254 0168 0133     		add	r3, r3, #1
 255 016a EA21     		mov	r1, #234
 256 016c 4900     		lsl	r1, r1, #1
 257 016e C919     		add	r1, r1, r7
 258 0170 0B60     		str	r3, [r1]
 259              	.L9:
  63:../Sources/AlgoOne.c ****       for( i = START_PIXEL; i < STOP_PIXEL; i++ ){
 260              		.loc 1 63 0 is_stmt 0
 261 0172 EA22     		mov	r2, #234
 262 0174 5200     		lsl	r2, r2, #1
 263 0176 D219     		add	r2, r2, r7
 264 0178 1368     		ldr	r3, [r2]
 265 017a 752B     		cmp	r3, #117
 266 017c DEDD     		ble	.L10
  65:../Sources/AlgoOne.c ****       }
  66:../Sources/AlgoOne.c ****       printf( "\r\n" );
 267              		.loc 1 66 0 is_stmt 1
 268 017e 484B     		ldr	r3, .L14+16
 269 0180 181C     		mov	r0, r3
 270 0182 FFF7FEFF 		bl	puts
 271              	.L2:
  67:../Sources/AlgoOne.c ****    }
  68:../Sources/AlgoOne.c **** 
  69:../Sources/AlgoOne.c ****    //Adds all the pixels below average
  70:../Sources/AlgoOne.c ****    for( i = 0; i < STOP_PIXEL - START_PIXEL + 1; i++){
 272              		.loc 1 70 0
 273 0186 0023     		mov	r3, #0
 274 0188 EA21     		mov	r1, #234
 275 018a 4900     		lsl	r1, r1, #1
 276 018c C919     		add	r1, r1, r7
 277 018e 0B60     		str	r3, [r1]
 278 0190 2BE0     		b	.L11
 279              	.L13:
  71:../Sources/AlgoOne.c ****       if( belowAvg[i] ){
 280              		.loc 1 71 0
 281 0192 414B     		ldr	r3, .L14+8
 282 0194 EC22     		mov	r2, #236
 283 0196 5200     		lsl	r2, r2, #1
 284 0198 D219     		add	r2, r2, r7
 285 019a D318     		add	r3, r2, r3
 286 019c EA21     		mov	r1, #234
 287 019e 4900     		lsl	r1, r1, #1
 288 01a0 C919     		add	r1, r1, r7
 289 01a2 0A68     		ldr	r2, [r1]
 290 01a4 9200     		lsl	r2, r2, #2
 291 01a6 D358     		ldr	r3, [r2, r3]
 292 01a8 002B     		cmp	r3, #0
 293 01aa 15D0     		beq	.L12
  72:../Sources/AlgoOne.c ****          totBelowAvg++;
 294              		.loc 1 72 0
 295 01ac E422     		mov	r2, #228
 296 01ae 5200     		lsl	r2, r2, #1
 297 01b0 D219     		add	r2, r2, r7
 298 01b2 1368     		ldr	r3, [r2]
 299 01b4 0133     		add	r3, r3, #1
 300 01b6 E421     		mov	r1, #228
 301 01b8 4900     		lsl	r1, r1, #1
 302 01ba C919     		add	r1, r1, r7
 303 01bc 0B60     		str	r3, [r1]
  73:../Sources/AlgoOne.c ****          sumBelowAvg += i;
 304              		.loc 1 73 0
 305 01be E623     		mov	r3, #230
 306 01c0 5B00     		lsl	r3, r3, #1
 307 01c2 DB19     		add	r3, r3, r7
 308 01c4 1A68     		ldr	r2, [r3]
 309 01c6 EA21     		mov	r1, #234
 310 01c8 4900     		lsl	r1, r1, #1
 311 01ca C919     		add	r1, r1, r7
 312 01cc 0B68     		ldr	r3, [r1]
 313 01ce D318     		add	r3, r2, r3
 314 01d0 E622     		mov	r2, #230
 315 01d2 5200     		lsl	r2, r2, #1
 316 01d4 D219     		add	r2, r2, r7
 317 01d6 1360     		str	r3, [r2]
 318              	.L12:
  70:../Sources/AlgoOne.c ****    for( i = 0; i < STOP_PIXEL - START_PIXEL + 1; i++){
 319              		.loc 1 70 0
 320 01d8 EA21     		mov	r1, #234
 321 01da 4900     		lsl	r1, r1, #1
 322 01dc C919     		add	r1, r1, r7
 323 01de 0B68     		ldr	r3, [r1]
 324 01e0 0133     		add	r3, r3, #1
 325 01e2 EA22     		mov	r2, #234
 326 01e4 5200     		lsl	r2, r2, #1
 327 01e6 D219     		add	r2, r2, r7
 328 01e8 1360     		str	r3, [r2]
 329              	.L11:
  70:../Sources/AlgoOne.c ****    for( i = 0; i < STOP_PIXEL - START_PIXEL + 1; i++){
 330              		.loc 1 70 0 is_stmt 0
 331 01ea EA21     		mov	r1, #234
 332 01ec 4900     		lsl	r1, r1, #1
 333 01ee C919     		add	r1, r1, r7
 334 01f0 0B68     		ldr	r3, [r1]
 335 01f2 6C2B     		cmp	r3, #108
 336 01f4 CDDD     		ble	.L13
  74:../Sources/AlgoOne.c ****       }
  75:../Sources/AlgoOne.c ****    }
  76:../Sources/AlgoOne.c **** 
  77:../Sources/AlgoOne.c ****    centerBelowAvg = sumBelowAvg / totBelowAvg; //calculates the center of the below average pixels
 337              		.loc 1 77 0 is_stmt 1
 338 01f6 E622     		mov	r2, #230
 339 01f8 5200     		lsl	r2, r2, #1
 340 01fa D219     		add	r2, r2, r7
 341 01fc 1068     		ldr	r0, [r2]
 342 01fe E423     		mov	r3, #228
 343 0200 5B00     		lsl	r3, r3, #1
 344 0202 DB19     		add	r3, r3, r7
 345 0204 1968     		ldr	r1, [r3]
 346 0206 FFF7FEFF 		bl	__aeabi_idiv
 347 020a 031C     		mov	r3, r0
 348 020c DE21     		mov	r1, #222
 349 020e 4900     		lsl	r1, r1, #1
 350 0210 C919     		add	r1, r1, r7
 351 0212 0B60     		str	r3, [r1]
  78:../Sources/AlgoOne.c ****    diffCenter = center - centerBelowAvg;  //Clalculates the difference of the center of the below a
 352              		.loc 1 78 0
 353 0214 E223     		mov	r3, #226
 354 0216 5B00     		lsl	r3, r3, #1
 355 0218 DB19     		add	r3, r3, r7
 356 021a 1A68     		ldr	r2, [r3]
 357 021c DE21     		mov	r1, #222
 358 021e 4900     		lsl	r1, r1, #1
 359 0220 C919     		add	r1, r1, r7
 360 0222 0B68     		ldr	r3, [r1]
 361 0224 D31A     		sub	r3, r2, r3
 362 0226 DC22     		mov	r2, #220
 363 0228 5200     		lsl	r2, r2, #1
 364 022a D219     		add	r2, r2, r7
 365 022c 1360     		str	r3, [r2]
  79:../Sources/AlgoOne.c ****    diff = (float)( center - diffCenter ) / (float)center; //Calculates "percent" difference. Ranges
 366              		.loc 1 79 0
 367 022e E223     		mov	r3, #226
 368 0230 5B00     		lsl	r3, r3, #1
 369 0232 DB19     		add	r3, r3, r7
 370 0234 1A68     		ldr	r2, [r3]
 371 0236 DC21     		mov	r1, #220
 372 0238 4900     		lsl	r1, r1, #1
 373 023a C919     		add	r1, r1, r7
 374 023c 0B68     		ldr	r3, [r1]
 375 023e D31A     		sub	r3, r2, r3
 376 0240 181C     		mov	r0, r3
 377 0242 FFF7FEFF 		bl	__aeabi_i2f
 378 0246 041C     		add	r4, r0, #0
 379 0248 E222     		mov	r2, #226
 380 024a 5200     		lsl	r2, r2, #1
 381 024c D219     		add	r2, r2, r7
 382 024e 1068     		ldr	r0, [r2]
 383 0250 FFF7FEFF 		bl	__aeabi_i2f
 384 0254 031C     		add	r3, r0, #0
 385 0256 201C     		add	r0, r4, #0
 386 0258 191C     		add	r1, r3, #0
 387 025a FFF7FEFF 		bl	__aeabi_fdiv
 388 025e 031C     		add	r3, r0, #0
 389 0260 DA21     		mov	r1, #218
 390 0262 4900     		lsl	r1, r1, #1
 391 0264 C919     		add	r1, r1, r7
 392 0266 0B60     		str	r3, [r1]
  80:../Sources/AlgoOne.c ****    TFC_SetServo(0,diff - 1); //Adjusts servo accordingly
 393              		.loc 1 80 0
 394 0268 DA22     		mov	r2, #218
 395 026a 5200     		lsl	r2, r2, #1
 396 026c D219     		add	r2, r2, r7
 397 026e 1068     		ldr	r0, [r2]
 398 0270 FE21     		mov	r1, #254
 399 0272 8905     		lsl	r1, r1, #22
 400 0274 FFF7FEFF 		bl	__aeabi_fsub
 401 0278 031C     		add	r3, r0, #0
 402 027a 0020     		mov	r0, #0
 403 027c 191C     		add	r1, r3, #0
 404 027e FFF7FEFF 		bl	TFC_SetServo
  81:../Sources/AlgoOne.c ****    delay(2); //Allows servo time to move
 405              		.loc 1 81 0
 406 0282 0220     		mov	r0, #2
 407 0284 FFF7FEFF 		bl	delay
  82:../Sources/AlgoOne.c **** }
 408              		.loc 1 82 0
 409 0288 BD46     		mov	sp, r7
 410 028a 77B0     		add	sp, sp, #476
 411              		@ sp needed for prologue
 412 028c 90BD     		pop	{r4, r7, pc}
 413              	.L15:
 414 028e C046     		.align	2
 415              	.L14:
 416 0290 00000000 		.word	LineScanImageReady
 417 0294 00000000 		.word	LineScanImage0
 418 0298 28FEFFFF 		.word	-472
 419 029c 00000000 		.word	.LC2
 420 02a0 04000000 		.word	.LC4
 421              		.cfi_endproc
 422              	.LFE0:
 424              		.text
 425              	.Letext0:
 426              		.file 2 "C:/Freescale/CW MCU v10.6/MCU/ARM_GCC_Support/ewl/EWL_C/include/cstdint"
 427              		.file 3 "C:/Users/Jared/Desktop/freescalecup/FRDM-TFC/Project_Headers/TFC\\TFC_LineScanCamera.h"