   1              		.cpu cortex-m0
   2              		.fpu softvfp
   3              		.eabi_attribute 20, 1
   4              		.eabi_attribute 21, 1
   5              		.eabi_attribute 23, 3
   6              		.eabi_attribute 24, 1
   7              		.eabi_attribute 25, 1
   8              		.eabi_attribute 26, 1
   9              		.eabi_attribute 30, 6
  10              		.eabi_attribute 34, 0
  11              		.eabi_attribute 18, 4
  12              		.code	16
  13              		.file	"Camera.c"
  14              		.text
  15              	.Ltext0:
  16              		.cfi_sections	.debug_frame
  17              		.section	.text.getCamera,"ax",%progbits
  18              		.align	2
  19              		.global	getCamera
  20              		.code	16
  21              		.thumb_func
  23              	getCamera:
  24              	.LFB0:
  25              		.file 1 "../Sources/Camera.c"
   1:../Sources/Camera.c **** /*
   2:../Sources/Camera.c ****  * Camera.c
   3:../Sources/Camera.c ****  *
   4:../Sources/Camera.c ****  *  Created on: Feb 3, 2016
   5:../Sources/Camera.c ****  *      Author: Jared
   6:../Sources/Camera.c ****  */
   7:../Sources/Camera.c **** 
   8:../Sources/Camera.c **** #include "TFC\TFC.h"
   9:../Sources/Camera.c **** #include "Common.h"
  10:../Sources/Camera.c **** #include "stdlib.h"
  11:../Sources/Camera.c **** 
  12:../Sources/Camera.c **** 
  13:../Sources/Camera.c **** 
  14:../Sources/Camera.c **** uint16_t* getCamera(){
  26              		.loc 1 14 0
  27              		.cfi_startproc
  28 0000 80B5     		push	{r7, lr}
  29              	.LCFI0:
  30              		.cfi_def_cfa_offset 8
  31              		.cfi_offset 7, -8
  32              		.cfi_offset 14, -4
  33 0002 82B0     		sub	sp, sp, #8
  34              	.LCFI1:
  35              		.cfi_def_cfa_offset 16
  36 0004 00AF     		add	r7, sp, #0
  37              	.LCFI2:
  38              		.cfi_def_cfa_register 7
  15:../Sources/Camera.c **** 	uint16_t* cameraData = (uint16_t*) malloc( sizeof(uint16_t) * 128 );
  39              		.loc 1 15 0
  40 0006 8023     		mov	r3, #128
  41 0008 5B00     		lsl	r3, r3, #1
  42 000a 181C     		mov	r0, r3
  43 000c FFF7FEFF 		bl	malloc
  44 0010 031C     		mov	r3, r0
  45 0012 3B60     		str	r3, [r7]
  16:../Sources/Camera.c **** 	while(!LineScanImageReady);
  46              		.loc 1 16 0
  47 0014 C046     		mov	r8, r8
  48              	.L2:
  49              		.loc 1 16 0 is_stmt 0
  50 0016 114B     		ldr	r3, .L6
  51 0018 1B78     		ldrb	r3, [r3]
  52 001a DBB2     		uxtb	r3, r3
  53 001c 002B     		cmp	r3, #0
  54 001e FAD0     		beq	.L2
  17:../Sources/Camera.c **** 	int i;
  18:../Sources/Camera.c **** 	for( i = 0; i < 128; i++){
  55              		.loc 1 18 0 is_stmt 1
  56 0020 0023     		mov	r3, #0
  57 0022 7B60     		str	r3, [r7, #4]
  58 0024 0EE0     		b	.L3
  59              	.L4:
  19:../Sources/Camera.c **** 		cameraData[i] = (uint16_t)LineScanImage0[ i ];
  60              		.loc 1 19 0
  61 0026 7B68     		ldr	r3, [r7, #4]
  62 0028 5B00     		lsl	r3, r3, #1
  63 002a 3A68     		ldr	r2, [r7]
  64 002c D218     		add	r2, r2, r3
  65 002e 0C4B     		ldr	r3, .L6+4
  66 0030 1968     		ldr	r1, [r3]
  67 0032 7B68     		ldr	r3, [r7, #4]
  68 0034 5B00     		lsl	r3, r3, #1
  69 0036 CB18     		add	r3, r1, r3
  70 0038 1B88     		ldrh	r3, [r3]
  71 003a 9BB2     		uxth	r3, r3
  72 003c 1380     		strh	r3, [r2]
  18:../Sources/Camera.c **** 	for( i = 0; i < 128; i++){
  73              		.loc 1 18 0
  74 003e 7B68     		ldr	r3, [r7, #4]
  75 0040 0133     		add	r3, r3, #1
  76 0042 7B60     		str	r3, [r7, #4]
  77              	.L3:
  18:../Sources/Camera.c **** 	for( i = 0; i < 128; i++){
  78              		.loc 1 18 0 is_stmt 0
  79 0044 7B68     		ldr	r3, [r7, #4]
  80 0046 7F2B     		cmp	r3, #127
  81 0048 EDDD     		ble	.L4
  20:../Sources/Camera.c **** 	}
  21:../Sources/Camera.c **** 	LineScanImageReady = 0;
  82              		.loc 1 21 0 is_stmt 1
  83 004a 044B     		ldr	r3, .L6
  84 004c 0022     		mov	r2, #0
  85 004e 1A70     		strb	r2, [r3]
  22:../Sources/Camera.c **** 	return cameraData;
  86              		.loc 1 22 0
  87 0050 3B68     		ldr	r3, [r7]
  23:../Sources/Camera.c **** }
  88              		.loc 1 23 0
  89 0052 181C     		mov	r0, r3
  90 0054 BD46     		mov	sp, r7
  91 0056 02B0     		add	sp, sp, #8
  92              		@ sp needed for prologue
  93 0058 80BD     		pop	{r7, pc}
  94              	.L7:
  95 005a C046     		.align	2
  96              	.L6:
  97 005c 00000000 		.word	LineScanImageReady
  98 0060 00000000 		.word	LineScanImage0
  99              		.cfi_endproc
 100              	.LFE0:
 102              		.text
 103              	.Letext0:
 104              		.file 2 "C:/Freescale/CW MCU v10.6/MCU/ARM_GCC_Support/ewl/EWL_C/include/cstdint"
 105              		.file 3 "C:/Users/Jared/Desktop/freescalecup/FRDM-TFC/Project_Headers/TFC\\TFC_LineScanCamera.h"