   1              		.cpu cortex-m0
   2              		.fpu softvfp
   3              		.eabi_attribute 20, 1
   4              		.eabi_attribute 21, 1
   5              		.eabi_attribute 23, 3
   6              		.eabi_attribute 24, 1
   7              		.eabi_attribute 25, 1
   8              		.eabi_attribute 26, 1
   9              		.eabi_attribute 30, 6
  10              		.eabi_attribute 34, 0
  11              		.eabi_attribute 18, 4
  12              		.code	16
  13              		.file	"InitCar.c"
  14              		.text
  15              	.Ltext0:
  16              		.cfi_sections	.debug_frame
  17              		.section	.text.lightInitSequence,"ax",%progbits
  18              		.align	2
  19              		.global	lightInitSequence
  20              		.code	16
  21              		.thumb_func
  23              	lightInitSequence:
  24              	.LFB0:
  25              		.file 1 "../Sources/InitCar.c"
   1:../Sources/InitCar.c **** /*
   2:../Sources/InitCar.c ****  * InitCar.c
   3:../Sources/InitCar.c ****  *
   4:../Sources/InitCar.c ****  *  Created on: Feb 3, 2016
   5:../Sources/InitCar.c ****  *      Author: Jared
   6:../Sources/InitCar.c ****  */
   7:../Sources/InitCar.c **** 
   8:../Sources/InitCar.c **** #include "TFC\TFC.h"
   9:../Sources/InitCar.c **** #include "Common.h"
  10:../Sources/InitCar.c **** 
  11:../Sources/InitCar.c **** void lightInitSequence(){
  26              		.loc 1 11 0
  27              		.cfi_startproc
  28 0000 80B5     		push	{r7, lr}
  29              	.LCFI0:
  30              		.cfi_def_cfa_offset 8
  31              		.cfi_offset 7, -8
  32              		.cfi_offset 14, -4
  33 0002 82B0     		sub	sp, sp, #8
  34              	.LCFI1:
  35              		.cfi_def_cfa_offset 16
  36 0004 00AF     		add	r7, sp, #0
  37              	.LCFI2:
  38              		.cfi_def_cfa_register 7
  12:../Sources/InitCar.c **** 	
  13:../Sources/InitCar.c **** 	// Delay time between lights
  14:../Sources/InitCar.c **** 	int delayT = 10;
  39              		.loc 1 14 0
  40 0006 0A23     		mov	r3, #10
  41 0008 7B60     		str	r3, [r7, #4]
  15:../Sources/InitCar.c **** 	
  16:../Sources/InitCar.c **** 	// All lights off
  17:../Sources/InitCar.c **** 	TFC_BAT_LED0_OFF;
  42              		.loc 1 17 0
  43 000a 274B     		ldr	r3, .L2
  44 000c 8022     		mov	r2, #128
  45 000e 5200     		lsl	r2, r2, #1
  46 0010 9A60     		str	r2, [r3, #8]
  18:../Sources/InitCar.c **** 	TFC_BAT_LED1_OFF;
  47              		.loc 1 18 0
  48 0012 254B     		ldr	r3, .L2
  49 0014 8022     		mov	r2, #128
  50 0016 9200     		lsl	r2, r2, #2
  51 0018 9A60     		str	r2, [r3, #8]
  19:../Sources/InitCar.c **** 	TFC_BAT_LED2_OFF;
  52              		.loc 1 19 0
  53 001a 234B     		ldr	r3, .L2
  54 001c 8022     		mov	r2, #128
  55 001e D200     		lsl	r2, r2, #3
  56 0020 9A60     		str	r2, [r3, #8]
  20:../Sources/InitCar.c **** 	TFC_BAT_LED3_OFF;
  57              		.loc 1 20 0
  58 0022 214B     		ldr	r3, .L2
  59 0024 8022     		mov	r2, #128
  60 0026 1201     		lsl	r2, r2, #4
  61 0028 9A60     		str	r2, [r3, #8]
  21:../Sources/InitCar.c **** 	delay(delayT);
  62              		.loc 1 21 0
  63 002a 7B68     		ldr	r3, [r7, #4]
  64 002c 181C     		mov	r0, r3
  65 002e FFF7FEFF 		bl	delay
  22:../Sources/InitCar.c **** 	
  23:../Sources/InitCar.c **** 	// Turns light 1 on
  24:../Sources/InitCar.c **** 	TFC_BAT_LED0_ON;
  66              		.loc 1 24 0
  67 0032 1D4B     		ldr	r3, .L2
  68 0034 8022     		mov	r2, #128
  69 0036 5200     		lsl	r2, r2, #1
  70 0038 5A60     		str	r2, [r3, #4]
  25:../Sources/InitCar.c **** 	delay(delayT);
  71              		.loc 1 25 0
  72 003a 7B68     		ldr	r3, [r7, #4]
  73 003c 181C     		mov	r0, r3
  74 003e FFF7FEFF 		bl	delay
  26:../Sources/InitCar.c **** 	
  27:../Sources/InitCar.c **** 	// Turns light 2 on and 1 off
  28:../Sources/InitCar.c **** 	TFC_BAT_LED0_OFF;
  75              		.loc 1 28 0
  76 0042 194B     		ldr	r3, .L2
  77 0044 8022     		mov	r2, #128
  78 0046 5200     		lsl	r2, r2, #1
  79 0048 9A60     		str	r2, [r3, #8]
  29:../Sources/InitCar.c **** 	TFC_BAT_LED1_ON;
  80              		.loc 1 29 0
  81 004a 174B     		ldr	r3, .L2
  82 004c 8022     		mov	r2, #128
  83 004e 9200     		lsl	r2, r2, #2
  84 0050 5A60     		str	r2, [r3, #4]
  30:../Sources/InitCar.c **** 	delay(delayT);
  85              		.loc 1 30 0
  86 0052 7B68     		ldr	r3, [r7, #4]
  87 0054 181C     		mov	r0, r3
  88 0056 FFF7FEFF 		bl	delay
  31:../Sources/InitCar.c **** 	
  32:../Sources/InitCar.c **** 	// Turns light 3 on and 2 off
  33:../Sources/InitCar.c **** 	TFC_BAT_LED1_OFF;
  89              		.loc 1 33 0
  90 005a 134B     		ldr	r3, .L2
  91 005c 8022     		mov	r2, #128
  92 005e 9200     		lsl	r2, r2, #2
  93 0060 9A60     		str	r2, [r3, #8]
  34:../Sources/InitCar.c **** 	TFC_BAT_LED2_ON;
  94              		.loc 1 34 0
  95 0062 114B     		ldr	r3, .L2
  96 0064 8022     		mov	r2, #128
  97 0066 D200     		lsl	r2, r2, #3
  98 0068 5A60     		str	r2, [r3, #4]
  35:../Sources/InitCar.c **** 	delay(delayT);
  99              		.loc 1 35 0
 100 006a 7B68     		ldr	r3, [r7, #4]
 101 006c 181C     		mov	r0, r3
 102 006e FFF7FEFF 		bl	delay
  36:../Sources/InitCar.c **** 	
  37:../Sources/InitCar.c **** 	// Turns light 4 on and 3 off
  38:../Sources/InitCar.c **** 	TFC_BAT_LED2_OFF;
 103              		.loc 1 38 0
 104 0072 0D4B     		ldr	r3, .L2
 105 0074 8022     		mov	r2, #128
 106 0076 D200     		lsl	r2, r2, #3
 107 0078 9A60     		str	r2, [r3, #8]
  39:../Sources/InitCar.c **** 	TFC_BAT_LED3_ON;
 108              		.loc 1 39 0
 109 007a 0B4B     		ldr	r3, .L2
 110 007c 8022     		mov	r2, #128
 111 007e 1201     		lsl	r2, r2, #4
 112 0080 5A60     		str	r2, [r3, #4]
  40:../Sources/InitCar.c **** 	delay(delayT);
 113              		.loc 1 40 0
 114 0082 7B68     		ldr	r3, [r7, #4]
 115 0084 181C     		mov	r0, r3
 116 0086 FFF7FEFF 		bl	delay
  41:../Sources/InitCar.c **** 	
  42:../Sources/InitCar.c **** 	// All lights on
  43:../Sources/InitCar.c **** 	TFC_BAT_LED0_ON;
 117              		.loc 1 43 0
 118 008a 074B     		ldr	r3, .L2
 119 008c 8022     		mov	r2, #128
 120 008e 5200     		lsl	r2, r2, #1
 121 0090 5A60     		str	r2, [r3, #4]
  44:../Sources/InitCar.c **** 	TFC_BAT_LED1_ON;
 122              		.loc 1 44 0
 123 0092 054B     		ldr	r3, .L2
 124 0094 8022     		mov	r2, #128
 125 0096 9200     		lsl	r2, r2, #2
 126 0098 5A60     		str	r2, [r3, #4]
  45:../Sources/InitCar.c **** 	TFC_BAT_LED2_ON;
 127              		.loc 1 45 0
 128 009a 034B     		ldr	r3, .L2
 129 009c 8022     		mov	r2, #128
 130 009e D200     		lsl	r2, r2, #3
 131 00a0 5A60     		str	r2, [r3, #4]
  46:../Sources/InitCar.c **** 	
  47:../Sources/InitCar.c **** }
 132              		.loc 1 47 0
 133 00a2 BD46     		mov	sp, r7
 134 00a4 02B0     		add	sp, sp, #8
 135              		@ sp needed for prologue
 136 00a6 80BD     		pop	{r7, pc}
 137              	.L3:
 138              		.align	2
 139              	.L2:
 140 00a8 40F00F40 		.word	1074786368
 141              		.cfi_endproc
 142              	.LFE0:
 144              		.section	.text.init,"ax",%progbits
 145              		.align	2
 146              		.global	init
 147              		.code	16
 148              		.thumb_func
 150              	init:
 151              	.LFB1:
  48:../Sources/InitCar.c **** 
  49:../Sources/InitCar.c **** void init(){
 152              		.loc 1 49 0
 153              		.cfi_startproc
 154 0000 80B5     		push	{r7, lr}
 155              	.LCFI3:
 156              		.cfi_def_cfa_offset 8
 157              		.cfi_offset 7, -8
 158              		.cfi_offset 14, -4
 159 0002 00AF     		add	r7, sp, #0
 160              	.LCFI4:
 161              		.cfi_def_cfa_register 7
  50:../Sources/InitCar.c **** 	
  51:../Sources/InitCar.c **** 	// TFC initialisation function
  52:../Sources/InitCar.c **** 	TFC_Init();
 162              		.loc 1 52 0
 163 0004 FFF7FEFF 		bl	TFC_Init
  53:../Sources/InitCar.c **** 	
  54:../Sources/InitCar.c **** 	// Sets the motors to off
  55:../Sources/InitCar.c **** 	TFC_SetMotorPWM(0, 0); 	
 164              		.loc 1 55 0
 165 0008 0022     		mov	r2, #0
 166 000a 0023     		mov	r3, #0
 167 000c 101C     		add	r0, r2, #0
 168 000e 191C     		add	r1, r3, #0
 169 0010 FFF7FEFF 		bl	TFC_SetMotorPWM
  56:../Sources/InitCar.c **** 	
  57:../Sources/InitCar.c **** 	// Sets the servo to straight
  58:../Sources/InitCar.c **** 	TFC_SetServo(0, 0);		
 170              		.loc 1 58 0
 171 0014 0023     		mov	r3, #0
 172 0016 0020     		mov	r0, #0
 173 0018 191C     		add	r1, r3, #0
 174 001a FFF7FEFF 		bl	TFC_SetServo
  59:../Sources/InitCar.c **** 	
  60:../Sources/InitCar.c **** 	// Runs light initialisation sequence
  61:../Sources/InitCar.c **** 	lightInitSequence();	
 175              		.loc 1 61 0
 176 001e FFF7FEFF 		bl	lightInitSequence
  62:../Sources/InitCar.c **** }
 177              		.loc 1 62 0
 178 0022 BD46     		mov	sp, r7
 179              		@ sp needed for prologue
 180 0024 80BD     		pop	{r7, pc}
 181              		.cfi_endproc
 182              	.LFE1:
 184 0026 C046     		.text
 185              	.Letext0:
 186              		.file 2 "C:/Users/Jared/Desktop/freescalecup/FRDM-TFC/Project_Headers/MKL25Z4.h"
 187              		.file 3 "C:/Freescale/CW MCU v10.6/MCU/ARM_GCC_Support/ewl/EWL_C/include/cstdint"