   1              		.cpu cortex-m0
   2              		.fpu softvfp
   3              		.eabi_attribute 20, 1
   4              		.eabi_attribute 21, 1
   5              		.eabi_attribute 23, 3
   6              		.eabi_attribute 24, 1
   7              		.eabi_attribute 25, 1
   8              		.eabi_attribute 26, 1
   9              		.eabi_attribute 30, 6
  10              		.eabi_attribute 34, 0
  11              		.eabi_attribute 18, 4
  12              		.code	16
  13              		.file	"main.c"
  14              		.text
  15              	.Ltext0:
  16              		.cfi_sections	.debug_frame
  17              		.section	.rodata
  18              		.align	2
  19              	.LC2:
  20 0000 7C0D00   		.ascii	"|\015\000"
  21              		.global	__aeabi_fmul
  22              		.global	__aeabi_f2iz
  23 0003 00       		.align	2
  24              	.LC4:
  25 0004 7B227665 		.ascii	"{\"version\":0,\"sensitivity\":%d,\"speed\":%d,\"da"
  25      7273696F 
  25      6E223A30 
  25      2C227365 
  25      6E736974 
  26 0030 7461223A 		.ascii	"ta\":[\000"
  26      5B00
  27 0036 0000     		.align	2
  28              	.LC6:
  29 0038 5D7D00   		.ascii	"]}\000"
  30 003b 00       		.section	.text.main,"ax",%progbits
  31              		.align	2
  32              		.global	main
  33              		.code	16
  34              		.thumb_func
  36              	main:
  37              	.LFB0:
  38              		.file 1 "../Sources/main.c"
   1:../Sources/main.c **** #include "derivative.h" /* include peripheral declarations */
   2:../Sources/main.c **** #include "TFC\TFC.h"
   3:../Sources/main.c **** #include "Algorithms.h"
   4:../Sources/main.c **** #include "Common.h"
   5:../Sources/main.c **** #include "InitCar.h"
   6:../Sources/main.c **** #include "Camera.h"
   7:../Sources/main.c **** #include "stdlib.h"
   8:../Sources/main.c **** #include "Control.h"
   9:../Sources/main.c **** #include "SerialComms.h"
  10:../Sources/main.c **** 
  11:../Sources/main.c **** 
  12:../Sources/main.c **** // TODO Comment all the things
  13:../Sources/main.c **** int main(){
  39              		.loc 1 13 0
  40              		.cfi_startproc
  41 0000 90B5     		push	{r4, r7, lr}
  42              	.LCFI0:
  43              		.cfi_def_cfa_offset 12
  44              		.cfi_offset 4, -12
  45              		.cfi_offset 7, -8
  46              		.cfi_offset 14, -4
  47 0002 D5B0     		sub	sp, sp, #340
  48              	.LCFI1:
  49              		.cfi_def_cfa_offset 352
  50 0004 00AF     		add	r7, sp, #0
  51              	.LCFI2:
  52              		.cfi_def_cfa_register 7
  14:../Sources/main.c **** 	
  15:../Sources/main.c **** 	// Initialise program
  16:../Sources/main.c **** 	init();		
  53              		.loc 1 16 0
  54 0006 FFF7FEFF 		bl	init
  17:../Sources/main.c **** 	
  18:../Sources/main.c **** 	// Used to indicate stopping
  19:../Sources/main.c **** 	int run = 1;
  55              		.loc 1 19 0
  56 000a 0123     		mov	r3, #1
  57 000c A620     		mov	r0, #166
  58 000e 4000     		lsl	r0, r0, #1
  59 0010 C019     		add	r0, r0, r7
  60 0012 0360     		str	r3, [r0]
  20:../Sources/main.c **** 	int count = 0;
  61              		.loc 1 20 0
  62 0014 0023     		mov	r3, #0
  63 0016 A421     		mov	r1, #164
  64 0018 4900     		lsl	r1, r1, #1
  65 001a C919     		add	r1, r1, r7
  66 001c 0B60     		str	r3, [r1]
  21:../Sources/main.c **** 	
  22:../Sources/main.c **** 	int first = 1;
  67              		.loc 1 22 0
  68 001e 0123     		mov	r3, #1
  69 0020 A222     		mov	r2, #162
  70 0022 5200     		lsl	r2, r2, #1
  71 0024 D219     		add	r2, r2, r7
  72 0026 1360     		str	r3, [r2]
  23:../Sources/main.c **** 	int sensitivity;
  24:../Sources/main.c **** 	float speed;
  25:../Sources/main.c **** 	
  26:../Sources/main.c **** 	// Pointers for referencing data
  27:../Sources/main.c **** 	uint8_t cameraData[USED_PIXELS];
  28:../Sources/main.c **** 	uint8_t avgCamera[USED_PIXELS];
  29:../Sources/main.c **** 	uint8_t runningAvg[USED_PIXELS];
  30:../Sources/main.c **** 	struct Command command;
  31:../Sources/main.c **** 	command.speedL = 0.0;
  73              		.loc 1 31 0
  74 0028 AD4B     		ldr	r3, .L24
  75 002a A824     		mov	r4, #168
  76 002c 6400     		lsl	r4, r4, #1
  77 002e E419     		add	r4, r4, r7
  78 0030 E318     		add	r3, r4, r3
  79 0032 0022     		mov	r2, #0
  80 0034 5A60     		str	r2, [r3, #4]
  32:../Sources/main.c **** 	command.speedR = 0.0;
  81              		.loc 1 32 0
  82 0036 AA4B     		ldr	r3, .L24
  83 0038 A820     		mov	r0, #168
  84 003a 4000     		lsl	r0, r0, #1
  85 003c C019     		add	r0, r0, r7
  86 003e C318     		add	r3, r0, r3
  87 0040 0022     		mov	r2, #0
  88 0042 9A60     		str	r2, [r3, #8]
  33:../Sources/main.c **** 	command.steerValue = 0.0;
  89              		.loc 1 33 0
  90 0044 A64B     		ldr	r3, .L24
  91 0046 A821     		mov	r1, #168
  92 0048 4900     		lsl	r1, r1, #1
  93 004a C919     		add	r1, r1, r7
  94 004c CB18     		add	r3, r1, r3
  95 004e 0022     		mov	r2, #0
  96 0050 1A60     		str	r2, [r3]
  34:../Sources/main.c **** 	command.stop = 0;
  97              		.loc 1 34 0
  98 0052 A34B     		ldr	r3, .L24
  99 0054 A822     		mov	r2, #168
 100 0056 5200     		lsl	r2, r2, #1
 101 0058 D219     		add	r2, r2, r7
 102 005a D318     		add	r3, r2, r3
 103 005c 0022     		mov	r2, #0
 104 005e DA60     		str	r2, [r3, #12]
  35:../Sources/main.c **** 	
  36:../Sources/main.c **** 	int i;
  37:../Sources/main.c **** 	TFC_SetLineScanExposureTime(CAMERA_PERIOD);
 105              		.loc 1 37 0
 106 0060 A04B     		ldr	r3, .L24+4
 107 0062 181C     		mov	r0, r3
 108 0064 FFF7FEFF 		bl	TFC_SetLineScanExposureTime
  38:../Sources/main.c **** 	
  39:../Sources/main.c **** 	
  40:../Sources/main.c **** 	while(1){
  41:../Sources/main.c **** 		while(1){
  42:../Sources/main.c **** 			while(!LineScanImageReady);
 109              		.loc 1 42 0
 110 0068 00E0     		b	.L21
 111              	.L22:
  43:../Sources/main.c **** 			LineScanImageReady = 0;
  44:../Sources/main.c **** 			printf("|");
  45:../Sources/main.c **** 			for( i = 16; i < 112; i++){
  46:../Sources/main.c **** 				char out = LineScanImage0[i] >> 10;
  47:../Sources/main.c **** 				
  48:../Sources/main.c **** 				if(out == 0) {
  49:../Sources/main.c **** 					printf(" ");								
  50:../Sources/main.c **** 				} else if(out == 1) {
  51:../Sources/main.c **** 					printf("%c", 176);								
  52:../Sources/main.c **** 				} else if(out == 2) {
  53:../Sources/main.c **** 					printf("%c", 177);
  54:../Sources/main.c **** 				} else {
  55:../Sources/main.c **** 					printf("%c", 178);
  56:../Sources/main.c **** 				}
  57:../Sources/main.c **** 			}
  58:../Sources/main.c **** 			printf("|\r\n");
  59:../Sources/main.c **** 			//delay(50);
  60:../Sources/main.c **** 			
  61:../Sources/main.c **** 			// Waits till the start button is pressed
  62:../Sources/main.c **** 			if(START_BUTTON) break;		
  63:../Sources/main.c **** 		}
 112              		.loc 1 63 0
 113 006a C046     		mov	r8, r8
 114              	.L11:
 115              	.L21:
  42:../Sources/main.c **** 			while(!LineScanImageReady);
 116              		.loc 1 42 0
 117 006c C046     		mov	r8, r8
 118              	.L2:
  42:../Sources/main.c **** 			while(!LineScanImageReady);
 119              		.loc 1 42 0 is_stmt 0
 120 006e 9E4B     		ldr	r3, .L24+8
 121 0070 1B78     		ldrb	r3, [r3]
 122 0072 DBB2     		uxtb	r3, r3
 123 0074 002B     		cmp	r3, #0
 124 0076 FAD0     		beq	.L2
  43:../Sources/main.c **** 			LineScanImageReady = 0;
 125              		.loc 1 43 0 is_stmt 1
 126 0078 9B4B     		ldr	r3, .L24+8
 127 007a 0022     		mov	r2, #0
 128 007c 1A70     		strb	r2, [r3]
  44:../Sources/main.c **** 			printf("|");
 129              		.loc 1 44 0
 130 007e 7C20     		mov	r0, #124
 131 0080 FFF7FEFF 		bl	putchar
  45:../Sources/main.c **** 			for( i = 16; i < 112; i++){
 132              		.loc 1 45 0
 133 0084 1023     		mov	r3, #16
 134 0086 A024     		mov	r4, #160
 135 0088 6400     		lsl	r4, r4, #1
 136 008a E419     		add	r4, r4, r7
 137 008c 2360     		str	r3, [r4]
 138 008e 35E0     		b	.L3
 139              	.L8:
 140              	.LBB2:
  46:../Sources/main.c **** 				char out = LineScanImage0[i] >> 10;
 141              		.loc 1 46 0
 142 0090 964B     		ldr	r3, .L24+12
 143 0092 1A68     		ldr	r2, [r3]
 144 0094 A020     		mov	r0, #160
 145 0096 4000     		lsl	r0, r0, #1
 146 0098 C019     		add	r0, r0, r7
 147 009a 0368     		ldr	r3, [r0]
 148 009c 5B00     		lsl	r3, r3, #1
 149 009e D318     		add	r3, r2, r3
 150 00a0 1B88     		ldrh	r3, [r3]
 151 00a2 9BB2     		uxth	r3, r3
 152 00a4 9B0A     		lsr	r3, r3, #10
 153 00a6 9AB2     		uxth	r2, r3
 154 00a8 9149     		ldr	r1, .L24+16
 155 00aa 7B18     		add	r3, r7, r1
 156 00ac 1A70     		strb	r2, [r3]
  48:../Sources/main.c **** 				if(out == 0) {
 157              		.loc 1 48 0
 158 00ae 904A     		ldr	r2, .L24+16
 159 00b0 BB18     		add	r3, r7, r2
 160 00b2 1B78     		ldrb	r3, [r3]
 161 00b4 002B     		cmp	r3, #0
 162 00b6 03D1     		bne	.L4
  49:../Sources/main.c **** 					printf(" ");								
 163              		.loc 1 49 0
 164 00b8 2020     		mov	r0, #32
 165 00ba FFF7FEFF 		bl	putchar
 166 00be 14E0     		b	.L5
 167              	.L4:
  50:../Sources/main.c **** 				} else if(out == 1) {
 168              		.loc 1 50 0
 169 00c0 8B4C     		ldr	r4, .L24+16
 170 00c2 3B19     		add	r3, r7, r4
 171 00c4 1B78     		ldrb	r3, [r3]
 172 00c6 012B     		cmp	r3, #1
 173 00c8 03D1     		bne	.L6
  51:../Sources/main.c **** 					printf("%c", 176);								
 174              		.loc 1 51 0
 175 00ca B020     		mov	r0, #176
 176 00cc FFF7FEFF 		bl	putchar
 177 00d0 0BE0     		b	.L5
 178              	.L6:
  52:../Sources/main.c **** 				} else if(out == 2) {
 179              		.loc 1 52 0
 180 00d2 8748     		ldr	r0, .L24+16
 181 00d4 3B18     		add	r3, r7, r0
 182 00d6 1B78     		ldrb	r3, [r3]
 183 00d8 022B     		cmp	r3, #2
 184 00da 03D1     		bne	.L7
  53:../Sources/main.c **** 					printf("%c", 177);
 185              		.loc 1 53 0
 186 00dc B120     		mov	r0, #177
 187 00de FFF7FEFF 		bl	putchar
 188 00e2 02E0     		b	.L5
 189              	.L7:
  55:../Sources/main.c **** 					printf("%c", 178);
 190              		.loc 1 55 0
 191 00e4 B220     		mov	r0, #178
 192 00e6 FFF7FEFF 		bl	putchar
 193              	.L5:
 194              	.LBE2:
  45:../Sources/main.c **** 			for( i = 16; i < 112; i++){
 195              		.loc 1 45 0
 196 00ea A021     		mov	r1, #160
 197 00ec 4900     		lsl	r1, r1, #1
 198 00ee C919     		add	r1, r1, r7
 199 00f0 0B68     		ldr	r3, [r1]
 200 00f2 0133     		add	r3, r3, #1
 201 00f4 A022     		mov	r2, #160
 202 00f6 5200     		lsl	r2, r2, #1
 203 00f8 D219     		add	r2, r2, r7
 204 00fa 1360     		str	r3, [r2]
 205              	.L3:
  45:../Sources/main.c **** 			for( i = 16; i < 112; i++){
 206              		.loc 1 45 0 is_stmt 0
 207 00fc A024     		mov	r4, #160
 208 00fe 6400     		lsl	r4, r4, #1
 209 0100 E419     		add	r4, r4, r7
 210 0102 2368     		ldr	r3, [r4]
 211 0104 6F2B     		cmp	r3, #111
 212 0106 C3DD     		ble	.L8
  58:../Sources/main.c **** 			printf("|\r\n");
 213              		.loc 1 58 0 is_stmt 1
 214 0108 7A4B     		ldr	r3, .L24+20
 215 010a 181C     		mov	r0, r3
 216 010c FFF7FEFF 		bl	puts
  62:../Sources/main.c **** 			if(START_BUTTON) break;		
 217              		.loc 1 62 0
 218 0110 794B     		ldr	r3, .L24+24
 219 0112 1A69     		ldr	r2, [r3, #16]
 220 0114 8023     		mov	r3, #128
 221 0116 9B01     		lsl	r3, r3, #6
 222 0118 1340     		and	r3, r2
 223 011a A6D0     		beq	.L22
 224 011c C046     		mov	r8, r8
  64:../Sources/main.c **** 	
  65:../Sources/main.c **** 		// Waits till the start button is pressed
  66:../Sources/main.c **** 		while(!START_BUTTON);	
 225              		.loc 1 66 0
 226 011e C046     		mov	r8, r8
 227              	.L12:
 228              		.loc 1 66 0 is_stmt 0
 229 0120 754B     		ldr	r3, .L24+24
 230 0122 1A69     		ldr	r2, [r3, #16]
 231 0124 8023     		mov	r3, #128
 232 0126 9B01     		lsl	r3, r3, #6
 233 0128 1340     		and	r3, r2
 234 012a F9D0     		beq	.L12
  67:../Sources/main.c **** 		
  68:../Sources/main.c **** 		sensitivity = getSensitivity();
 235              		.loc 1 68 0 is_stmt 1
 236 012c FFF7FEFF 		bl	getSensitivity
 237 0130 031C     		mov	r3, r0
 238 0132 9C20     		mov	r0, #156
 239 0134 4000     		lsl	r0, r0, #1
 240 0136 C019     		add	r0, r0, r7
 241 0138 0360     		str	r3, [r0]
  69:../Sources/main.c **** 		speed = getSpeed();
 242              		.loc 1 69 0
 243 013a FFF7FEFF 		bl	getSpeed
 244 013e 031C     		add	r3, r0, #0
 245 0140 9A21     		mov	r1, #154
 246 0142 4900     		lsl	r1, r1, #1
 247 0144 C919     		add	r1, r1, r7
 248 0146 0B60     		str	r3, [r1]
  70:../Sources/main.c **** 		TFC_HBRIDGE_ENABLE;
 249              		.loc 1 70 0
 250 0148 6C4B     		ldr	r3, .L24+28
 251 014a 8022     		mov	r2, #128
 252 014c 9203     		lsl	r2, r2, #14
 253 014e 5A60     		str	r2, [r3, #4]
  71:../Sources/main.c **** 		
  72:../Sources/main.c **** 		printf("{\"version\":0,\"sensitivity\":%d,\"speed\":%d,\"data\":[", sensitivity, (int)(speed*100)
 254              		.loc 1 72 0
 255 0150 9A22     		mov	r2, #154
 256 0152 5200     		lsl	r2, r2, #1
 257 0154 D219     		add	r2, r2, r7
 258 0156 1068     		ldr	r0, [r2]
 259 0158 6949     		ldr	r1, .L24+32
 260 015a FFF7FEFF 		bl	__aeabi_fmul
 261 015e 031C     		add	r3, r0, #0
 262 0160 181C     		add	r0, r3, #0
 263 0162 FFF7FEFF 		bl	__aeabi_f2iz
 264 0166 031C     		mov	r3, r0
 265 0168 6649     		ldr	r1, .L24+36
 266 016a 9C24     		mov	r4, #156
 267 016c 6400     		lsl	r4, r4, #1
 268 016e E419     		add	r4, r4, r7
 269 0170 2268     		ldr	r2, [r4]
 270 0172 081C     		mov	r0, r1
 271 0174 111C     		mov	r1, r2
 272 0176 1A1C     		mov	r2, r3
 273 0178 FFF7FEFF 		bl	printf
  73:../Sources/main.c **** 		
  74:../Sources/main.c **** 		while(run){
 274              		.loc 1 74 0
 275 017c 9DE0     		b	.L13
 276              	.L20:
  75:../Sources/main.c **** 			
  76:../Sources/main.c **** 			count++;
 277              		.loc 1 76 0
 278 017e A420     		mov	r0, #164
 279 0180 4000     		lsl	r0, r0, #1
 280 0182 C019     		add	r0, r0, r7
 281 0184 0368     		ldr	r3, [r0]
 282 0186 0133     		add	r3, r3, #1
 283 0188 A421     		mov	r1, #164
 284 018a 4900     		lsl	r1, r1, #1
 285 018c C919     		add	r1, r1, r7
 286 018e 0B60     		str	r3, [r1]
  77:../Sources/main.c **** 			count %= 4;
 287              		.loc 1 77 0
 288 0190 A423     		mov	r3, #164
 289 0192 5B00     		lsl	r3, r3, #1
 290 0194 DB19     		add	r3, r3, r7
 291 0196 1A68     		ldr	r2, [r3]
 292 0198 5B4B     		ldr	r3, .L24+40
 293 019a 1340     		and	r3, r2
 294 019c 04D5     		bpl	.L14
 295 019e 013B     		sub	r3, r3, #1
 296 01a0 0422     		mov	r2, #4
 297 01a2 5242     		neg	r2, r2
 298 01a4 1343     		orr	r3, r2
 299 01a6 0133     		add	r3, r3, #1
 300              	.L14:
 301 01a8 A424     		mov	r4, #164
 302 01aa 6400     		lsl	r4, r4, #1
 303 01ac E419     		add	r4, r4, r7
 304 01ae 2360     		str	r3, [r4]
  78:../Sources/main.c **** 			
  79:../Sources/main.c **** 			if(first){	
 305              		.loc 1 79 0
 306 01b0 A220     		mov	r0, #162
 307 01b2 4000     		lsl	r0, r0, #1
 308 01b4 C019     		add	r0, r0, r7
 309 01b6 0368     		ldr	r3, [r0]
 310 01b8 002B     		cmp	r3, #0
 311 01ba 05D0     		beq	.L15
  80:../Sources/main.c **** 				first = 0;
 312              		.loc 1 80 0
 313 01bc 0023     		mov	r3, #0
 314 01be A221     		mov	r1, #162
 315 01c0 4900     		lsl	r1, r1, #1
 316 01c2 C919     		add	r1, r1, r7
 317 01c4 0B60     		str	r3, [r1]
 318 01c6 02E0     		b	.L16
 319              	.L15:
  81:../Sources/main.c **** 			} else {
  82:../Sources/main.c **** 				printf(",");
 320              		.loc 1 82 0
 321 01c8 2C20     		mov	r0, #44
 322 01ca FFF7FEFF 		bl	putchar
 323              	.L16:
  83:../Sources/main.c **** 			}
  84:../Sources/main.c **** 			
  85:../Sources/main.c **** 			// Reads the data from the camera
  86:../Sources/main.c **** 			getCamera( cameraData );	
 324              		.loc 1 86 0
 325 01ce 3B1C     		mov	r3, r7
 326 01d0 D433     		add	r3, r3, #212
 327 01d2 181C     		mov	r0, r3
 328 01d4 FFF7FEFF 		bl	getCamera
  87:../Sources/main.c **** 			
  88:../Sources/main.c **** 			// Computes the averages
  89:../Sources/main.c **** 			refineData( cameraData, avgCamera, runningAvg, count);
 329              		.loc 1 89 0
 330 01d8 381C     		mov	r0, r7
 331 01da D430     		add	r0, r0, #212
 332 01dc 391C     		mov	r1, r7
 333 01de 7431     		add	r1, r1, #116
 334 01e0 3A1C     		mov	r2, r7
 335 01e2 1432     		add	r2, r2, #20
 336 01e4 A424     		mov	r4, #164
 337 01e6 6400     		lsl	r4, r4, #1
 338 01e8 E419     		add	r4, r4, r7
 339 01ea 2368     		ldr	r3, [r4]
 340 01ec FFF7FEFF 		bl	refineData
  90:../Sources/main.c **** 			
  91:../Sources/main.c **** 			run = getCommand( cameraData, &command, sensitivity, speed );	
 341              		.loc 1 91 0
 342 01f0 381C     		mov	r0, r7
 343 01f2 D430     		add	r0, r0, #212
 344 01f4 391D     		add	r1, r7, #4
 345 01f6 9C23     		mov	r3, #156
 346 01f8 5B00     		lsl	r3, r3, #1
 347 01fa DB19     		add	r3, r3, r7
 348 01fc 1A68     		ldr	r2, [r3]
 349 01fe 9A24     		mov	r4, #154
 350 0200 6400     		lsl	r4, r4, #1
 351 0202 E419     		add	r4, r4, r7
 352 0204 2368     		ldr	r3, [r4]
 353 0206 FFF7FEFF 		bl	getCommand
 354 020a 031C     		mov	r3, r0
 355 020c A620     		mov	r0, #166
 356 020e 4000     		lsl	r0, r0, #1
 357 0210 C019     		add	r0, r0, r7
 358 0212 0360     		str	r3, [r0]
  92:../Sources/main.c **** 			apply(command);
 359              		.loc 1 92 0
 360 0214 324B     		ldr	r3, .L24
 361 0216 A821     		mov	r1, #168
 362 0218 4900     		lsl	r1, r1, #1
 363 021a C919     		add	r1, r1, r7
 364 021c CB18     		add	r3, r1, r3
 365 021e 1868     		ldr	r0, [r3]
 366 0220 5968     		ldr	r1, [r3, #4]
 367 0222 9A68     		ldr	r2, [r3, #8]
 368 0224 DB68     		ldr	r3, [r3, #12]
 369 0226 FFF7FEFF 		bl	apply
  93:../Sources/main.c **** 			
  94:../Sources/main.c **** 			if(count == 0){
 370              		.loc 1 94 0
 371 022a A422     		mov	r2, #164
 372 022c 5200     		lsl	r2, r2, #1
 373 022e D219     		add	r2, r2, r7
 374 0230 1368     		ldr	r3, [r2]
 375 0232 002B     		cmp	r3, #0
 376 0234 22D1     		bne	.L17
  95:../Sources/main.c **** 				// Sets the command based on the camera data and returns whether to stop or not
  96:../Sources/main.c **** 				run = getCommand( cameraData, &command, sensitivity, speed );	
 377              		.loc 1 96 0
 378 0236 381C     		mov	r0, r7
 379 0238 D430     		add	r0, r0, #212
 380 023a 391D     		add	r1, r7, #4
 381 023c 9C23     		mov	r3, #156
 382 023e 5B00     		lsl	r3, r3, #1
 383 0240 DB19     		add	r3, r3, r7
 384 0242 1A68     		ldr	r2, [r3]
 385 0244 9A24     		mov	r4, #154
 386 0246 6400     		lsl	r4, r4, #1
 387 0248 E419     		add	r4, r4, r7
 388 024a 2368     		ldr	r3, [r4]
 389 024c FFF7FEFF 		bl	getCommand
 390 0250 031C     		mov	r3, r0
 391 0252 A620     		mov	r0, #166
 392 0254 4000     		lsl	r0, r0, #1
 393 0256 C019     		add	r0, r0, r7
 394 0258 0360     		str	r3, [r0]
  97:../Sources/main.c **** 				
  98:../Sources/main.c **** 				// Sends the command and camera data over serial to be stored
  99:../Sources/main.c **** 				if(0)
 100:../Sources/main.c **** 					print(command, cameraData);
 101:../Sources/main.c **** 				
 102:../Sources/main.c **** 				// Applies the command to the car
 103:../Sources/main.c **** 				apply(command);
 395              		.loc 1 103 0
 396 025a 214B     		ldr	r3, .L24
 397 025c A821     		mov	r1, #168
 398 025e 4900     		lsl	r1, r1, #1
 399 0260 C919     		add	r1, r1, r7
 400 0262 CB18     		add	r3, r1, r3
 401 0264 1868     		ldr	r0, [r3]
 402 0266 5968     		ldr	r1, [r3, #4]
 403 0268 9A68     		ldr	r2, [r3, #8]
 404 026a DB68     		ldr	r3, [r3, #12]
 405 026c FFF7FEFF 		bl	apply
 104:../Sources/main.c **** 				
 105:../Sources/main.c **** 				clear(avgCamera, USED_PIXELS);
 406              		.loc 1 105 0
 407 0270 3B1C     		mov	r3, r7
 408 0272 7433     		add	r3, r3, #116
 409 0274 181C     		mov	r0, r3
 410 0276 6021     		mov	r1, #96
 411 0278 FFF7FEFF 		bl	clear
 412              	.L17:
 106:../Sources/main.c **** 
 107:../Sources/main.c **** 			}
 108:../Sources/main.c **** 			
 109:../Sources/main.c **** 			count++;
 413              		.loc 1 109 0
 414 027c A422     		mov	r2, #164
 415 027e 5200     		lsl	r2, r2, #1
 416 0280 D219     		add	r2, r2, r7
 417 0282 1368     		ldr	r3, [r2]
 418 0284 0133     		add	r3, r3, #1
 419 0286 A424     		mov	r4, #164
 420 0288 6400     		lsl	r4, r4, #1
 421 028a E419     		add	r4, r4, r7
 422 028c 2360     		str	r3, [r4]
 110:../Sources/main.c **** 			count %= 4;
 423              		.loc 1 110 0
 424 028e A420     		mov	r0, #164
 425 0290 4000     		lsl	r0, r0, #1
 426 0292 C019     		add	r0, r0, r7
 427 0294 0268     		ldr	r2, [r0]
 428 0296 1C4B     		ldr	r3, .L24+40
 429 0298 1340     		and	r3, r2
 430 029a 04D5     		bpl	.L18
 431 029c 013B     		sub	r3, r3, #1
 432 029e 0422     		mov	r2, #4
 433 02a0 5242     		neg	r2, r2
 434 02a2 1343     		orr	r3, r2
 435 02a4 0133     		add	r3, r3, #1
 436              	.L18:
 437 02a6 A421     		mov	r1, #164
 438 02a8 4900     		lsl	r1, r1, #1
 439 02aa C919     		add	r1, r1, r7
 440 02ac 0B60     		str	r3, [r1]
 111:../Sources/main.c **** 			
 112:../Sources/main.c **** 			// Exits the loop if the stop button is pressed
 113:../Sources/main.c **** 			if(STOP_BUTTON) break;
 441              		.loc 1 113 0
 442 02ae 124B     		ldr	r3, .L24+24
 443 02b0 1A69     		ldr	r2, [r3, #16]
 444 02b2 8023     		mov	r3, #128
 445 02b4 9B02     		lsl	r3, r3, #10
 446 02b6 1340     		and	r3, r2
 447 02b8 07D1     		bne	.L23
 448              	.L13:
  74:../Sources/main.c **** 		while(run){
 449              		.loc 1 74 0
 450 02ba A622     		mov	r2, #166
 451 02bc 5200     		lsl	r2, r2, #1
 452 02be D219     		add	r2, r2, r7
 453 02c0 1368     		ldr	r3, [r2]
 454 02c2 002B     		cmp	r3, #0
 455 02c4 00D0     		beq	.LCB397
 456 02c6 5AE7     		b	.L20	@long jump
 457              	.LCB397:
 458 02c8 00E0     		b	.L19
 459              	.L23:
 460              		.loc 1 113 0
 461 02ca C046     		mov	r8, r8
 462              	.L19:
 114:../Sources/main.c **** 		}
 115:../Sources/main.c **** 		
 116:../Sources/main.c **** 		TFC_HBRIDGE_DISABLE;
 463              		.loc 1 116 0
 464 02cc 0B4B     		ldr	r3, .L24+28
 465 02ce 8022     		mov	r2, #128
 466 02d0 9203     		lsl	r2, r2, #14
 467 02d2 9A60     		str	r2, [r3, #8]
 117:../Sources/main.c **** 		
 118:../Sources/main.c **** 		printf("]}");
 468              		.loc 1 118 0
 469 02d4 0D4B     		ldr	r3, .L24+44
 470 02d6 181C     		mov	r0, r3
 471 02d8 FFF7FEFF 		bl	printf
 119:../Sources/main.c **** 		
 120:../Sources/main.c **** 	}
 472              		.loc 1 120 0
 473 02dc C6E6     		b	.L11
 474              	.L25:
 475 02de C046     		.align	2
 476              	.L24:
 477 02e0 B4FEFFFF 		.word	-332
 478 02e4 204E0000 		.word	20000
 479 02e8 00000000 		.word	LineScanImageReady
 480 02ec 00000000 		.word	LineScanImage0
 481 02f0 3F010000 		.word	319
 482 02f4 00000000 		.word	.LC2
 483 02f8 80F00F40 		.word	1074786432
 484 02fc 00F10F40 		.word	1074786560
 485 0300 0000C842 		.word	1120403456
 486 0304 04000000 		.word	.LC4
 487 0308 03000080 		.word	-2147483645
 488 030c 38000000 		.word	.LC6
 489              		.cfi_endproc
 490              	.LFE0:
 492              		.text
 493              	.Letext0:
 494              		.file 2 "C:/Freescale/CW MCU v10.6/MCU/ARM_GCC_Support/ewl/EWL_C/include/cstdint"
 495              		.file 3 "C:/Users/Jared/Desktop/freescalecup/FRDM-TFC/Project_Headers/MKL25Z4.h"
 496              		.file 4 "../Sources/Common.h"
 497              		.file 5 "C:/Users/Jared/Desktop/freescalecup/FRDM-TFC/Project_Headers/TFC\\TFC_LineScanCamera.h"
DEFINED SYMBOLS
                            *ABS*:00000000 main.c
C:\Users\Jared\AppData\Local\Temp\ccKtfJqU.s:18     .rodata:00000000 $d
C:\Users\Jared\AppData\Local\Temp\ccKtfJqU.s:31     .text.main:00000000 $t
C:\Users\Jared\AppData\Local\Temp\ccKtfJqU.s:36     .text.main:00000000 main
C:\Users\Jared\AppData\Local\Temp\ccKtfJqU.s:477    .text.main:000002e0 $d
                     .debug_frame:00000010 $d

UNDEFINED SYMBOLS
__aeabi_fmul
__aeabi_f2iz
init
TFC_SetLineScanExposureTime
putchar
puts
getSensitivity
getSpeed
printf
getCamera
refineData
getCommand
apply
clear
LineScanImageReady
LineScanImage0
