   1              		.cpu cortex-m0
   2              		.fpu softvfp
   3              		.eabi_attribute 20, 1
   4              		.eabi_attribute 21, 1
   5              		.eabi_attribute 23, 3
   6              		.eabi_attribute 24, 1
   7              		.eabi_attribute 25, 1
   8              		.eabi_attribute 26, 1
   9              		.eabi_attribute 30, 6
  10              		.eabi_attribute 34, 0
  11              		.eabi_attribute 18, 4
  12              		.code	16
  13              		.file	"SerialComms.c"
  14              		.text
  15              	.Ltext0:
  16              		.cfi_sections	.debug_frame
  17              		.global	__aeabi_f2d
  18              		.section	.rodata
  19              		.align	2
  20              	.LC0:
  21 0000 7B227269 		.ascii	"{\"rightMotor\":%f,\000"
  21      6768744D 
  21      6F746F72 
  21      223A2566 
  21      2C00
  22 0012 0000     		.align	2
  23              	.LC2:
  24 0014 226C6566 		.ascii	"\"leftMotor\":%f,\000"
  24      744D6F74 
  24      6F72223A 
  24      25662C00 
  25              		.align	2
  26              	.LC4:
  27 0024 22737465 		.ascii	"\"steering\":%f,\000"
  27      6572696E 
  27      67223A25 
  27      662C00
  28 0033 00       		.align	2
  29              	.LC6:
  30 0034 2273746F 		.ascii	"\"stop\":%d,\000"
  30      70223A25 
  30      642C00
  31 003f 00       		.align	2
  32              	.LC8:
  33 0040 2263616D 		.ascii	"\"camera\":[\000"
  33      65726122 
  33      3A5B00
  34 004b 00       		.align	2
  35              	.LC10:
  36 004c 25642C00 		.ascii	"%d,\000"
  37              		.align	2
  38              	.LC12:
  39 0050 25645D7D 		.ascii	"%d]}\000"
  39      00
  40 0055 000000   		.section	.text.print,"ax",%progbits
  41              		.align	2
  42              		.global	print
  43              		.code	16
  44              		.thumb_func
  46              	print:
  47              	.LFB0:
  48              		.file 1 "../Sources/SerialComms.c"
   1:../Sources/SerialComms.c **** /*
   2:../Sources/SerialComms.c ****  * SerialComms.c
   3:../Sources/SerialComms.c ****  *
   4:../Sources/SerialComms.c ****  *  Created on: Feb 4, 2016
   5:../Sources/SerialComms.c ****  *      Author: Jared
   6:../Sources/SerialComms.c ****  */
   7:../Sources/SerialComms.c **** #include "TFC\TFC.h"
   8:../Sources/SerialComms.c **** #include "stdlib.h"
   9:../Sources/SerialComms.c **** #include "Common.h"
  10:../Sources/SerialComms.c **** #include "string.h"
  11:../Sources/SerialComms.c **** 
  12:../Sources/SerialComms.c **** 
  13:../Sources/SerialComms.c **** void print(struct Command command, uint8_t* cameraData){
  49              		.loc 1 13 0
  50              		.cfi_startproc
  51 0000 90B5     		push	{r4, r7, lr}
  52              	.LCFI0:
  53              		.cfi_def_cfa_offset 12
  54              		.cfi_offset 4, -12
  55              		.cfi_offset 7, -8
  56              		.cfi_offset 14, -4
  57 0002 87B0     		sub	sp, sp, #28
  58              	.LCFI1:
  59              		.cfi_def_cfa_offset 40
  60 0004 00AF     		add	r7, sp, #0
  61              	.LCFI2:
  62              		.cfi_def_cfa_register 7
  63 0006 3C1C     		mov	r4, r7
  64 0008 2060     		str	r0, [r4]
  65 000a 6160     		str	r1, [r4, #4]
  66 000c A260     		str	r2, [r4, #8]
  67 000e E360     		str	r3, [r4, #12]
  14:../Sources/SerialComms.c **** 	
  15:../Sources/SerialComms.c **** 	printf("{\"rightMotor\":%f,", command.speedR );
  68              		.loc 1 15 0
  69 0010 3B1C     		mov	r3, r7
  70 0012 9B68     		ldr	r3, [r3, #8]
  71 0014 181C     		add	r0, r3, #0
  72 0016 FFF7FEFF 		bl	__aeabi_f2d
  73 001a 031C     		mov	r3, r0
  74 001c 0C1C     		mov	r4, r1
  75 001e 244A     		ldr	r2, .L4
  76 0020 101C     		mov	r0, r2
  77 0022 1A1C     		mov	r2, r3
  78 0024 231C     		mov	r3, r4
  79 0026 FFF7FEFF 		bl	printf
  16:../Sources/SerialComms.c **** 	printf("\"leftMotor\":%f,", command.speedL );
  80              		.loc 1 16 0
  81 002a 3B1C     		mov	r3, r7
  82 002c 5B68     		ldr	r3, [r3, #4]
  83 002e 181C     		add	r0, r3, #0
  84 0030 FFF7FEFF 		bl	__aeabi_f2d
  85 0034 031C     		mov	r3, r0
  86 0036 0C1C     		mov	r4, r1
  87 0038 1E4A     		ldr	r2, .L4+4
  88 003a 101C     		mov	r0, r2
  89 003c 1A1C     		mov	r2, r3
  90 003e 231C     		mov	r3, r4
  91 0040 FFF7FEFF 		bl	printf
  17:../Sources/SerialComms.c **** 	printf("\"steering\":%f,", command.steerValue );
  92              		.loc 1 17 0
  93 0044 3B1C     		mov	r3, r7
  94 0046 1B68     		ldr	r3, [r3]
  95 0048 181C     		add	r0, r3, #0
  96 004a FFF7FEFF 		bl	__aeabi_f2d
  97 004e 031C     		mov	r3, r0
  98 0050 0C1C     		mov	r4, r1
  99 0052 194A     		ldr	r2, .L4+8
 100 0054 101C     		mov	r0, r2
 101 0056 1A1C     		mov	r2, r3
 102 0058 231C     		mov	r3, r4
 103 005a FFF7FEFF 		bl	printf
  18:../Sources/SerialComms.c **** 	printf("\"stop\":%d,", command.stop );
 104              		.loc 1 18 0
 105 005e 3B1C     		mov	r3, r7
 106 0060 DB68     		ldr	r3, [r3, #12]
 107 0062 164A     		ldr	r2, .L4+12
 108 0064 101C     		mov	r0, r2
 109 0066 191C     		mov	r1, r3
 110 0068 FFF7FEFF 		bl	printf
  19:../Sources/SerialComms.c **** 	printf("\"camera\":[");
 111              		.loc 1 19 0
 112 006c 144B     		ldr	r3, .L4+16
 113 006e 181C     		mov	r0, r3
 114 0070 FFF7FEFF 		bl	printf
  20:../Sources/SerialComms.c **** 	
  21:../Sources/SerialComms.c **** 	int i;
  22:../Sources/SerialComms.c **** 	for( i = 0; i < USED_PIXELS - 1; i++){
 115              		.loc 1 22 0
 116 0074 0023     		mov	r3, #0
 117 0076 7B61     		str	r3, [r7, #20]
 118 0078 0BE0     		b	.L2
 119              	.L3:
  23:../Sources/SerialComms.c **** 		printf("%d,", cameraData[i] );
 120              		.loc 1 23 0
 121 007a 7B69     		ldr	r3, [r7, #20]
 122 007c BA6A     		ldr	r2, [r7, #40]
 123 007e D318     		add	r3, r2, r3
 124 0080 1B78     		ldrb	r3, [r3]
 125 0082 104A     		ldr	r2, .L4+20
 126 0084 101C     		mov	r0, r2
 127 0086 191C     		mov	r1, r3
 128 0088 FFF7FEFF 		bl	printf
  22:../Sources/SerialComms.c **** 	for( i = 0; i < USED_PIXELS - 1; i++){
 129              		.loc 1 22 0
 130 008c 7B69     		ldr	r3, [r7, #20]
 131 008e 0133     		add	r3, r3, #1
 132 0090 7B61     		str	r3, [r7, #20]
 133              	.L2:
  22:../Sources/SerialComms.c **** 	for( i = 0; i < USED_PIXELS - 1; i++){
 134              		.loc 1 22 0 is_stmt 0
 135 0092 7B69     		ldr	r3, [r7, #20]
 136 0094 6E2B     		cmp	r3, #110
 137 0096 F0DD     		ble	.L3
  24:../Sources/SerialComms.c **** 	}
  25:../Sources/SerialComms.c **** 	
  26:../Sources/SerialComms.c **** 	printf("%d]}", cameraData[USED_PIXELS]);
 138              		.loc 1 26 0 is_stmt 1
 139 0098 BB6A     		ldr	r3, [r7, #40]
 140 009a 7033     		add	r3, r3, #112
 141 009c 1B78     		ldrb	r3, [r3]
 142 009e 0A4A     		ldr	r2, .L4+24
 143 00a0 101C     		mov	r0, r2
 144 00a2 191C     		mov	r1, r3
 145 00a4 FFF7FEFF 		bl	printf
  27:../Sources/SerialComms.c **** 	
  28:../Sources/SerialComms.c **** 	// TODO TFC_TASK() ?
  29:../Sources/SerialComms.c **** 		
  30:../Sources/SerialComms.c **** }
 146              		.loc 1 30 0
 147 00a8 BD46     		mov	sp, r7
 148 00aa 07B0     		add	sp, sp, #28
 149              		@ sp needed for prologue
 150 00ac 90BD     		pop	{r4, r7, pc}
 151              	.L5:
 152 00ae C046     		.align	2
 153              	.L4:
 154 00b0 00000000 		.word	.LC0
 155 00b4 14000000 		.word	.LC2
 156 00b8 24000000 		.word	.LC4
 157 00bc 34000000 		.word	.LC6
 158 00c0 40000000 		.word	.LC8
 159 00c4 4C000000 		.word	.LC10
 160 00c8 50000000 		.word	.LC12
 161              		.cfi_endproc
 162              	.LFE0:
 164              		.text
 165              	.Letext0:
 166              		.file 2 "../Sources/Common.h"
 167              		.file 3 "C:/Freescale/CW MCU v10.6/MCU/ARM_GCC_Support/ewl/EWL_C/include/cstdint"
DEFINED SYMBOLS
                            *ABS*:00000000 SerialComms.c
C:\Users\Jared\AppData\Local\Temp\cc8iWgzL.s:19     .rodata:00000000 $d
C:\Users\Jared\AppData\Local\Temp\cc8iWgzL.s:41     .text.print:00000000 $t
C:\Users\Jared\AppData\Local\Temp\cc8iWgzL.s:46     .text.print:00000000 print
C:\Users\Jared\AppData\Local\Temp\cc8iWgzL.s:154    .text.print:000000b0 $d
                     .debug_frame:00000010 $d

UNDEFINED SYMBOLS
__aeabi_f2d
printf
